target datalayout = "e-m:e-p270:32:32-p271:32:32-p272:64:64-i64:64-i128:128-f80:128-n8:16:32:64-S128"
target triple = "x86_64-unknown-linux-gnu"

%class.act_cache = type <{ ptr, %class.cmap, %class.svector, i32, i32, i32, [4 x i8] }>
%class.cmap = type { %class.chashtable }
%class.chashtable = type { ptr, i32, i32, i32, i32, i32, i32, i32, ptr, ptr, ptr }
%class.svector = type { %class.vector }
%class.vector = type { ptr }

; Function Attrs: mustprogress nounwind uwtable
define hidden void @_ZN9act_cache4initEv(ptr noundef nonnull align 8 dereferenceable(92) %this) #5 align 2 {
entry:
  %this.addr = alloca ptr, align 8
  store ptr %this, ptr %this.addr, align 8
  %this1 = load ptr, ptr %this.addr, align 8
  %m_max_unused = getelementptr inbounds %class.act_cache, ptr %this1, i32 0, i32 5
  %0 = load i32, ptr %m_max_unused, align 8
  %cmp = icmp ult i32 %0, 1024
  br i1 %cmp, label %if.then, label %if.end

if.then:                                          ; preds = %entry
  %m_max_unused2 = getelementptr inbounds %class.act_cache, ptr %this1, i32 0, i32 5
  store i32 1024, ptr %m_max_unused2, align 8
  br label %if.end

if.end:                                           ; preds = %if.then, %entry
  %m_unused = getelementptr inbounds %class.act_cache, ptr %this1, i32 0, i32 4
  store i32 0, ptr %m_unused, align 4
  %m_qhead = getelementptr inbounds %class.act_cache, ptr %this1, i32 0, i32 3
  store i32 0, ptr %m_qhead, align 8
  ret void
}