; Function Attrs: mustprogress nofree norecurse nosync nounwind willreturn memory(argmem: readwrite) uwtable
define hidden void @_ZN9act_cache4initEv(ptr nocapture noundef nonnull align 8 dereferenceable(92) %this) local_unnamed_addr #4 align 2 {
entry:
  %m_max_unused = getelementptr inbounds i8, ptr %this, i64 88
  %0 = load i32, ptr %m_max_unused, align 8
  %cmp = icmp ult i32 %0, 1024
  br i1 %cmp, label %if.then, label %if.end

if.then:                                          ; preds = %entry
  store i32 1024, ptr %m_max_unused, align 8
  br label %if.end

if.end:                                           ; preds = %if.then, %entry
  %m_unused = getelementptr inbounds i8, ptr %this, i64 84
  store i32 0, ptr %m_unused, align 4
  %m_qhead = getelementptr inbounds i8, ptr %this, i64 80
  store i32 0, ptr %m_qhead, align 8
  ret void
}